target datalayout = "e-m:e-p270:32:32-p271:32:32-p272:64:64-i64:64-i128:128-f80:128-n8:16:32:64-S128"
target triple = "x86_64-pc-linux-gnu"

%"struct.faiss::AdditiveQuantizer" = type <{ %"struct.faiss::Quantizer", i64, %"class.std::vector", %"class.std::vector.0", %"class.std::vector", i64, i64, i64, i8, i8, i8, [5 x i8], %"struct.faiss::IndexFlat1D", %"class.std::vector.0", i64, i32, float, float, [4 x i8] }>
%"struct.faiss::Quantizer" = type { ptr, i64, i64 }
%"class.std::vector" = type { %"struct.std::_Vector_base" }
%"struct.std::_Vector_base" = type { %"struct.std::_Vector_base<unsigned long, std::allocator<unsigned long>>::_Vector_impl" }
%"struct.std::_Vector_base<unsigned long, std::allocator<unsigned long>>::_Vector_impl" = type { %"struct.std::_Vector_base<unsigned long, std::allocator<unsigned long>>::_Vector_impl_data" }
%"struct.std::_Vector_base<unsigned long, std::allocator<unsigned long>>::_Vector_impl_data" = type { ptr, ptr, ptr }
%"struct.faiss::IndexFlat1D" = type { %"struct.faiss::IndexFlatL2", i8, %"class.std::vector.10" }
%"struct.faiss::IndexFlatL2" = type { %"struct.faiss::IndexFlat", %"class.std::vector.0" }
%"struct.faiss::IndexFlat" = type { %"struct.faiss::IndexFlatCodes" }
%"struct.faiss::IndexFlatCodes" = type { %"struct.faiss::Index.base", i64, %"class.std::vector.5" }
%"struct.faiss::Index.base" = type <{ ptr, i32, [4 x i8], i64, i8, i8, [2 x i8], i32, float }>
%"class.std::vector.5" = type { %"struct.std::_Vector_base.6" }
%"struct.std::_Vector_base.6" = type { %"struct.std::_Vector_base<unsigned char, std::allocator<unsigned char>>::_Vector_impl" }
%"struct.std::_Vector_base<unsigned char, std::allocator<unsigned char>>::_Vector_impl" = type { %"struct.std::_Vector_base<unsigned char, std::allocator<unsigned char>>::_Vector_impl_data" }
%"struct.std::_Vector_base<unsigned char, std::allocator<unsigned char>>::_Vector_impl_data" = type { ptr, ptr, ptr }
%"class.std::vector.10" = type { %"struct.std::_Vector_base.11" }
%"struct.std::_Vector_base.11" = type { %"struct.std::_Vector_base<long, std::allocator<long>>::_Vector_impl" }
%"struct.std::_Vector_base<long, std::allocator<long>>::_Vector_impl" = type { %"struct.std::_Vector_base<long, std::allocator<long>>::_Vector_impl_data" }
%"struct.std::_Vector_base<long, std::allocator<long>>::_Vector_impl_data" = type { ptr, ptr, ptr }
%"class.std::vector.0" = type { %"struct.std::_Vector_base.1" }
%"struct.std::_Vector_base.1" = type { %"struct.std::_Vector_base<float, std::allocator<float>>::_Vector_impl" }
%"struct.std::_Vector_base<float, std::allocator<float>>::_Vector_impl" = type { %"struct.std::_Vector_base<float, std::allocator<float>>::_Vector_impl_data" }
%"struct.std::_Vector_base<float, std::allocator<float>>::_Vector_impl_data" = type { ptr, ptr, ptr }
%"struct.faiss::BitstringReader" = type { ptr, i64, i64 }

; Function Attrs: mustprogress nounwind uwtable
define linkonce_odr noundef ptr @_ZNKSt6vectorIhSaIhEE11_M_data_ptrIhEEPT_S4_(ptr noundef nonnull align 8 dereferenceable(24) %0, ptr noundef %1) #1 comdat align 2 {
  %3 = alloca ptr, align 8
  %4 = alloca ptr, align 8
  store ptr %0, ptr %3, align 8
  store ptr %1, ptr %4, align 8
  %5 = load ptr, ptr %4, align 8
  ret ptr %5
}

; Function Attrs: mustprogress nounwind uwtable
define linkonce_odr noundef ptr @_ZNKSt6vectorIhSaIhEE4dataEv(ptr noundef nonnull align 8 dereferenceable(24) %0) #1 comdat align 2 {
  %2 = alloca ptr, align 8
  store ptr %0, ptr %2, align 8
  %3 = load ptr, ptr %2, align 8
  %4 = getelementptr inbounds %"struct.std::_Vector_base.6", ptr %3, i32 0, i32 0
  %5 = getelementptr inbounds %"struct.std::_Vector_base<unsigned char, std::allocator<unsigned char>>::_Vector_impl_data", ptr %4, i32 0, i32 0
  %6 = load ptr, ptr %5, align 8
  %7 = call noundef ptr @_ZNKSt6vectorIhSaIhEE11_M_data_ptrIhEEPT_S4_(ptr noundef nonnull align 8 dereferenceable(24) %3, ptr noundef %6) #13
  ret ptr %7
}

; Function Attrs: mustprogress nounwind uwtable
define linkonce_odr noundef ptr @_ZNK5faiss9IndexFlat6get_xbEv(ptr noundef nonnull align 8 dereferenceable(72) %0) #1 comdat align 2 {
  %2 = alloca ptr, align 8
  store ptr %0, ptr %2, align 8
  %3 = load ptr, ptr %2, align 8
  %4 = getelementptr inbounds %"struct.faiss::IndexFlatCodes", ptr %3, i32 0, i32 2
  %5 = call noundef ptr @_ZNKSt6vectorIhSaIhEE4dataEv(ptr noundef nonnull align 8 dereferenceable(24) %4) #13
  ret ptr %5
}

; Function Attrs: mustprogress nounwind uwtable
define linkonce_odr noundef nonnull align 8 dereferenceable(8) ptr @_ZNKSt6vectorImSaImEEixEm(ptr noundef nonnull align 8 dereferenceable(24) %0, i64 noundef %1) #1 comdat align 2 {
  %3 = alloca ptr, align 8
  %4 = alloca i64, align 8
  store ptr %0, ptr %3, align 8
  store i64 %1, ptr %4, align 8
  %5 = load ptr, ptr %3, align 8
  %6 = getelementptr inbounds %"struct.std::_Vector_base", ptr %5, i32 0, i32 0
  %7 = getelementptr inbounds %"struct.std::_Vector_base<unsigned long, std::allocator<unsigned long>>::_Vector_impl_data", ptr %6, i32 0, i32 0
  %8 = load ptr, ptr %7, align 8
  %9 = load i64, ptr %4, align 8
  %10 = getelementptr inbounds i64, ptr %8, i64 %9
  ret ptr %10
}

; Function Attrs: mustprogress uwtable
define noundef float @_ZNK5faiss17AdditiveQuantizer12decode_qcintEj(ptr noundef nonnull align 8 dereferenceable(308) %0, i32 noundef %1) #0 align 2 {
  %3 = alloca ptr, align 8
  %4 = alloca i32, align 4
  store ptr %0, ptr %3, align 8
  store i32 %1, ptr %4, align 4
  %5 = load ptr, ptr %3, align 8
  %6 = getelementptr inbounds %"struct.faiss::AdditiveQuantizer", ptr %5, i32 0, i32 12
  %7 = call noundef ptr @_ZNK5faiss9IndexFlat6get_xbEv(ptr noundef nonnull align 8 dereferenceable(72) %6)
  %8 = load i32, ptr %4, align 4
  %9 = zext i32 %8 to i64
  %10 = getelementptr inbounds float, ptr %7, i64 %9
  %11 = load float, ptr %10, align 4
  ret float %11
}

; Function Attrs: mustprogress nounwind uwtable
define linkonce_odr noundef i64 @_ZN5faiss15BitstringReader4readEi(ptr noundef nonnull align 8 dereferenceable(24) %0, i32 noundef %1) #1 comdat align 2 {
  %3 = alloca i64, align 8
  %4 = alloca ptr, align 8
  %5 = alloca i32, align 4
  %6 = alloca i32, align 4
  %7 = alloca i64, align 8
  %8 = alloca i32, align 4
  %9 = alloca i64, align 8
  %10 = alloca i64, align 8
  store ptr %0, ptr %4, align 8
  store i32 %1, ptr %5, align 4
  %11 = load ptr, ptr %4, align 8
  %12 = getelementptr inbounds %"struct.faiss::BitstringReader", ptr %11, i32 0, i32 2
  %13 = load i64, ptr %12, align 8
  %14 = and i64 %13, 7
  %15 = sub i64 8, %14
  %16 = trunc i64 %15 to i32
  store i32 %16, ptr %6, align 4
  %17 = getelementptr inbounds %"struct.faiss::BitstringReader", ptr %11, i32 0, i32 0
  %18 = load ptr, ptr %17, align 8
  %19 = getelementptr inbounds %"struct.faiss::BitstringReader", ptr %11, i32 0, i32 2
  %20 = load i64, ptr %19, align 8
  %21 = lshr i64 %20, 3
  %22 = getelementptr inbounds i8, ptr %18, i64 %21
  %23 = load i8, ptr %22, align 1
  %24 = zext i8 %23 to i32
  %25 = getelementptr inbounds %"struct.faiss::BitstringReader", ptr %11, i32 0, i32 2
  %26 = load i64, ptr %25, align 8
  %27 = and i64 %26, 7
  %28 = trunc i64 %27 to i32
  %29 = ashr i32 %24, %28
  %30 = sext i32 %29 to i64
  store i64 %30, ptr %7, align 8
  %31 = load i32, ptr %5, align 4
  %32 = load i32, ptr %6, align 4
  %33 = icmp sle i32 %31, %32
  br i1 %33, label %34, label %47

34:                                               ; preds = %2
  %35 = load i32, ptr %5, align 4
  %36 = shl i32 1, %35
  %37 = sub nsw i32 %36, 1
  %38 = sext i32 %37 to i64
  %39 = load i64, ptr %7, align 8
  %40 = and i64 %39, %38
  store i64 %40, ptr %7, align 8
  %41 = load i32, ptr %5, align 4
  %42 = sext i32 %41 to i64
  %43 = getelementptr inbounds %"struct.faiss::BitstringReader", ptr %11, i32 0, i32 2
  %44 = load i64, ptr %43, align 8
  %45 = add i64 %44, %42
  store i64 %45, ptr %43, align 8
  %46 = load i64, ptr %7, align 8
  store i64 %46, ptr %3, align 8
  br label %101

47:                                               ; preds = %2
  %48 = load i32, ptr %6, align 4
  store i32 %48, ptr %8, align 4
  %49 = getelementptr inbounds %"struct.faiss::BitstringReader", ptr %11, i32 0, i32 2
  %50 = load i64, ptr %49, align 8
  %51 = lshr i64 %50, 3
  %52 = add i64 %51, 1
  store i64 %52, ptr %9, align 8
  %53 = load i32, ptr %5, align 4
  %54 = sext i32 %53 to i64
  %55 = getelementptr inbounds %"struct.faiss::BitstringReader", ptr %11, i32 0, i32 2
  %56 = load i64, ptr %55, align 8
  %57 = add i64 %56, %54
  store i64 %57, ptr %55, align 8
  %58 = load i32, ptr %6, align 4
  %59 = load i32, ptr %5, align 4
  %60 = sub nsw i32 %59, %58
  store i32 %60, ptr %5, align 4
  br label %61

61:                                               ; preds = %64, %47
  %62 = load i32, ptr %5, align 4
  %63 = icmp sgt i32 %62, 8
  br i1 %63, label %64, label %81

64:                                               ; preds = %61
  %65 = getelementptr inbounds %"struct.faiss::BitstringReader", ptr %11, i32 0, i32 0
  %66 = load ptr, ptr %65, align 8
  %67 = load i64, ptr %9, align 8
  %68 = add i64 %67, 1
  store i64 %68, ptr %9, align 8
  %69 = getelementptr inbounds i8, ptr %66, i64 %67
  %70 = load i8, ptr %69, align 1
  %71 = zext i8 %70 to i64
  %72 = load i32, ptr %8, align 4
  %73 = zext i32 %72 to i64
  %74 = shl i64 %71, %73
  %75 = load i64, ptr %7, align 8
  %76 = or i64 %75, %74
  store i64 %76, ptr %7, align 8
  %77 = load i32, ptr %8, align 4
  %78 = add nsw i32 %77, 8
  store i32 %78, ptr %8, align 4
  %79 = load i32, ptr %5, align 4
  %80 = sub nsw i32 %79, 8
  store i32 %80, ptr %5, align 4
  br label %61, !llvm.loop !17

81:                                               ; preds = %61
  %82 = getelementptr inbounds %"struct.faiss::BitstringReader", ptr %11, i32 0, i32 0
  %83 = load ptr, ptr %82, align 8
  %84 = load i64, ptr %9, align 8
  %85 = getelementptr inbounds i8, ptr %83, i64 %84
  %86 = load i8, ptr %85, align 1
  %87 = zext i8 %86 to i64
  store i64 %87, ptr %10, align 8
  %88 = load i32, ptr %5, align 4
  %89 = shl i32 1, %88
  %90 = sub nsw i32 %89, 1
  %91 = sext i32 %90 to i64
  %92 = load i64, ptr %10, align 8
  %93 = and i64 %92, %91
  store i64 %93, ptr %10, align 8
  %94 = load i64, ptr %10, align 8
  %95 = load i32, ptr %8, align 4
  %96 = zext i32 %95 to i64
  %97 = shl i64 %94, %96
  %98 = load i64, ptr %7, align 8
  %99 = or i64 %98, %97
  store i64 %99, ptr %7, align 8
  %100 = load i64, ptr %7, align 8
  store i64 %100, ptr %3, align 8
  br label %101

101:                                              ; preds = %81, %34
  %102 = load i64, ptr %3, align 8
  ret i64 %102
}

; Function Attrs: mustprogress nounwind uwtable
define internal noundef float @_ZN5faiss12_GLOBAL__N_114accumulate_IPsERKNS_17AdditiveQuantizerERNS_15BitstringReaderEPKhPKf(ptr noundef nonnull align 8 dereferenceable(308) %0, ptr noundef nonnull align 8 dereferenceable(24) %1, ptr noundef %2, ptr noundef %3) #1 {
  %5 = alloca ptr, align 8
  %6 = alloca ptr, align 8
  %7 = alloca ptr, align 8
  %8 = alloca ptr, align 8
  %9 = alloca float, align 4
  %10 = alloca i32, align 4
  %11 = alloca i64, align 8
  %12 = alloca i32, align 4
  store ptr %0, ptr %5, align 8
  store ptr %1, ptr %6, align 8
  store ptr %2, ptr %7, align 8
  store ptr %3, ptr %8, align 8
  store float 0.000000e+00, ptr %9, align 4
  store i32 0, ptr %10, align 4
  br label %13

13:                                               ; preds = %43, %4
  %14 = load i32, ptr %10, align 4
  %15 = sext i32 %14 to i64
  %16 = load ptr, ptr %5, align 8
  %17 = getelementptr inbounds %"struct.faiss::AdditiveQuantizer", ptr %16, i32 0, i32 1
  %18 = load i64, ptr %17, align 8
  %19 = icmp ult i64 %15, %18
  br i1 %19, label %20, label %46

20:                                               ; preds = %13
  %21 = load ptr, ptr %5, align 8
  %22 = getelementptr inbounds %"struct.faiss::AdditiveQuantizer", ptr %21, i32 0, i32 2
  %23 = load i32, ptr %10, align 4
  %24 = sext i32 %23 to i64
  %25 = call noundef nonnull align 8 dereferenceable(8) ptr @_ZNKSt6vectorImSaImEEixEm(ptr noundef nonnull align 8 dereferenceable(24) %22, i64 noundef %24) #13
  %26 = load i64, ptr %25, align 8
  store i64 %26, ptr %11, align 8
  %27 = load ptr, ptr %6, align 8
  %28 = load i64, ptr %11, align 8
  %29 = trunc i64 %28 to i32
  %30 = call noundef i64 @_ZN5faiss15BitstringReader4readEi(ptr noundef nonnull align 8 dereferenceable(24) %27, i32 noundef %29)
  %31 = trunc i64 %30 to i32
  store i32 %31, ptr %12, align 4
  %32 = load ptr, ptr %8, align 8
  %33 = load i32, ptr %12, align 4
  %34 = sext i32 %33 to i64
  %35 = getelementptr inbounds float, ptr %32, i64 %34
  %36 = load float, ptr %35, align 4
  %37 = load float, ptr %9, align 4
  %38 = fadd float %37, %36
  store float %38, ptr %9, align 4
  %39 = load i64, ptr %11, align 8
  %40 = shl i64 1, %39
  %41 = load ptr, ptr %8, align 8
  %42 = getelementptr inbounds float, ptr %41, i64 %40
  store ptr %42, ptr %8, align 8
  br label %43

43:                                               ; preds = %20
  %44 = load i32, ptr %10, align 4
  %45 = add nsw i32 %44, 1
  store i32 %45, ptr %10, align 4
  br label %13, !llvm.loop !41

46:                                               ; preds = %13
  %47 = load float, ptr %9, align 4
  ret float %47
}

; Function Attrs: mustprogress nounwind uwtable
define linkonce_odr void @_ZN5faiss15BitstringReaderC2EPKhm(ptr noundef nonnull align 8 dereferenceable(24) %0, ptr noundef %1, i64 noundef %2) unnamed_addr #1 comdat align 2 {
  %4 = alloca ptr, align 8
  %5 = alloca ptr, align 8
  %6 = alloca i64, align 8
  store ptr %0, ptr %4, align 8
  store ptr %1, ptr %5, align 8
  store i64 %2, ptr %6, align 8
  %7 = load ptr, ptr %4, align 8
  %8 = getelementptr inbounds %"struct.faiss::BitstringReader", ptr %7, i32 0, i32 0
  %9 = load ptr, ptr %5, align 8
  store ptr %9, ptr %8, align 8
  %10 = getelementptr inbounds %"struct.faiss::BitstringReader", ptr %7, i32 0, i32 1
  %11 = load i64, ptr %6, align 8
  store i64 %11, ptr %10, align 8
  %12 = getelementptr inbounds %"struct.faiss::BitstringReader", ptr %7, i32 0, i32 2
  store i64 0, ptr %12, align 8
  ret void
}

; Function Attrs: mustprogress uwtable
define noundef float @_ZNK5faiss17AdditiveQuantizer22compute_1_distance_LUTILb0ELNS0_13Search_type_tE7EEEfPKhPKf(ptr noundef nonnull align 8 dereferenceable(308) %0, ptr noundef %1, ptr noundef %2) #0 align 2 {
  %4 = alloca ptr, align 8
  %5 = alloca ptr, align 8
  %6 = alloca ptr, align 8
  %7 = alloca %"struct.faiss::BitstringReader", align 8
  %8 = alloca float, align 4
  %9 = alloca i32, align 4
  %10 = alloca float, align 4
  store ptr %0, ptr %4, align 8
  store ptr %1, ptr %5, align 8
  store ptr %2, ptr %6, align 8
  %11 = load ptr, ptr %4, align 8
  %12 = load ptr, ptr %5, align 8
  %13 = getelementptr inbounds %"struct.faiss::Quantizer", ptr %11, i32 0, i32 2
  %14 = load i64, ptr %13, align 8
  call void @_ZN5faiss15BitstringReaderC2EPKhm(ptr noundef nonnull align 8 dereferenceable(24) %7, ptr noundef %12, i64 noundef %14)
  %15 = load ptr, ptr %5, align 8
  %16 = load ptr, ptr %6, align 8
  %17 = call noundef float @_ZN5faiss12_GLOBAL__N_114accumulate_IPsERKNS_17AdditiveQuantizerERNS_15BitstringReaderEPKhPKf(ptr noundef nonnull align 8 dereferenceable(308) %11, ptr noundef nonnull align 8 dereferenceable(24) %7, ptr noundef %15, ptr noundef %16)
  store float %17, ptr %8, align 4
  %18 = call noundef i64 @_ZN5faiss15BitstringReader4readEi(ptr noundef nonnull align 8 dereferenceable(24) %7, i32 noundef 4)
  %19 = trunc i64 %18 to i32
  store i32 %19, ptr %9, align 4
  %20 = load i32, ptr %9, align 4
  %21 = call noundef float @_ZNK5faiss17AdditiveQuantizer12decode_qcintEj(ptr noundef nonnull align 8 dereferenceable(308) %11, i32 noundef %20)
  store float %21, ptr %10, align 4
  %22 = load float, ptr %10, align 4
  %23 = load float, ptr %8, align 4
  %24 = call float @llvm.fmuladd.f32(float -2.000000e+00, float %23, float %22)
  ret float %24
}